target datalayout = "e-m:e-p270:32:32-p271:32:32-p272:64:64-i64:64-i128:128-f80:128-n8:16:32:64-S128"
target triple = "x86_64-pc-linux-gnu"

%struct.CopyToStateData = type { i32, ptr, ptr, i32, i8, i8, ptr, ptr, ptr, ptr, i8, ptr, %struct.CopyFormatOptions, ptr, ptr, ptr, ptr, i64 }
%struct.CopyFormatOptions = type { i32, i8, i8, i8, i32, ptr, i32, ptr, ptr, i32, ptr, ptr, ptr, ptr, i8, ptr, ptr, i8, ptr, ptr, i8, ptr, i8, i32, i32, i64, ptr }

@.str.2 = private unnamed_addr constant [9 x i8] c"copyto.c\00", align 1
@.str.27 = private unnamed_addr constant [30 x i8] c"could not close file \22%s\22: %m\00", align 1
@__func__.EndCopy = private unnamed_addr constant [8 x i8] c"EndCopy\00", align 1

; Function Attrs: nounwind uwtable
define internal void @EndCopy(ptr noundef %0) #0 {
  %2 = alloca ptr, align 8
  store ptr %0, ptr %2, align 8
  %3 = load ptr, ptr %2, align 8
  %4 = getelementptr inbounds nuw %struct.CopyToStateData, ptr %3, i32 0, i32 10
  %5 = load i8, ptr %4, align 8, !range !6, !noundef !7
  %6 = trunc i8 %5 to i1
  br i1 %6, label %7, label %9

7:                                                ; preds = %1
  %8 = load ptr, ptr %2, align 8
  call void @ClosePipeToProgram(ptr noundef %8)
  br label %35

9:                                                ; preds = %1
  %10 = load ptr, ptr %2, align 8
  %11 = getelementptr inbounds nuw %struct.CopyToStateData, ptr %10, i32 0, i32 9
  %12 = load ptr, ptr %11, align 8
  %13 = icmp ne ptr %12, null
  br i1 %13, label %14, label %34

14:                                               ; preds = %9
  %15 = load ptr, ptr %2, align 8
  %16 = getelementptr inbounds nuw %struct.CopyToStateData, ptr %15, i32 0, i32 1
  %17 = load ptr, ptr %16, align 8
  %18 = call i32 @FreeFile(ptr noundef %17)
  %19 = icmp ne i32 %18, 0
  br i1 %19, label %20, label %34

20:                                               ; preds = %14
  br label %21

21:                                               ; preds = %20
  br i1 true, label %22, label %24

22:                                               ; preds = %21
  %23 = call zeroext i1 @errstart_cold(i32 noundef 21, ptr noundef null) #15
  br i1 %23, label %26, label %32

24:                                               ; preds = %21
  %25 = call zeroext i1 @errstart(i32 noundef 21, ptr noundef null)
  br i1 %25, label %26, label %32

26:                                               ; preds = %24, %22
  %27 = call i32 @errcode_for_file_access()
  %28 = load ptr, ptr %2, align 8
  %29 = getelementptr inbounds nuw %struct.CopyToStateData, ptr %28, i32 0, i32 9
  %30 = load ptr, ptr %29, align 8
  %31 = call i32 (ptr, ...) @errmsg(ptr noundef @.str.27, ptr noundef %30)
  call void @errfinish(ptr noundef @.str.2, i32 noundef 326, ptr noundef @__func__.EndCopy)
  br label %32

32:                                               ; preds = %26, %24, %22
  unreachable

33:                                               ; No predecessors!
  br label %34

34:                                               ; preds = %33, %14, %9
  br label %35

35:                                               ; preds = %34, %7
  call void @pgstat_progress_end_command()
  %36 = load ptr, ptr %2, align 8
  %37 = getelementptr inbounds nuw %struct.CopyToStateData, ptr %36, i32 0, i32 14
  %38 = load ptr, ptr %37, align 8
  call void @MemoryContextDelete(ptr noundef %38)
  %39 = load ptr, ptr %2, align 8
  call void @pfree(ptr noundef %39)
  ret void
}

; Function Attrs: nounwind uwtable
define dso_local void @EndCopyTo(ptr noundef %0) #0 {
  %2 = alloca ptr, align 8
  store ptr %0, ptr %2, align 8
  %3 = load ptr, ptr %2, align 8
  %4 = getelementptr inbounds nuw %struct.CopyToStateData, ptr %3, i32 0, i32 7
  %5 = load ptr, ptr %4, align 8
  %6 = icmp ne ptr %5, null
  br i1 %6, label %7, label %17

7:                                                ; preds = %1
  %8 = load ptr, ptr %2, align 8
  %9 = getelementptr inbounds nuw %struct.CopyToStateData, ptr %8, i32 0, i32 7
  %10 = load ptr, ptr %9, align 8
  call void @ExecutorFinish(ptr noundef %10)
  %11 = load ptr, ptr %2, align 8
  %12 = getelementptr inbounds nuw %struct.CopyToStateData, ptr %11, i32 0, i32 7
  %13 = load ptr, ptr %12, align 8
  call void @ExecutorEnd(ptr noundef %13)
  %14 = load ptr, ptr %2, align 8
  %15 = getelementptr inbounds nuw %struct.CopyToStateData, ptr %14, i32 0, i32 7
  %16 = load ptr, ptr %15, align 8
  call void @FreeQueryDesc(ptr noundef %16)
  call void @PopActiveSnapshot()
  br label %17

17:                                               ; preds = %7, %1
  %18 = load ptr, ptr %2, align 8
  call void @EndCopy(ptr noundef %18)
  ret void
}