; Function Attrs: nounwind uwtable
define dso_local void @EndCopyTo(ptr noundef %0) local_unnamed_addr #0 {
  %2 = getelementptr inbounds nuw i8, ptr %0, i64 40
  %3 = load ptr, ptr %2, align 8
  %.not = icmp eq ptr %3, null
  br i1 %.not, label %7, label %4

4:                                                ; preds = %1
  tail call void @ExecutorFinish(ptr noundef nonnull %3) #17
  %5 = load ptr, ptr %2, align 8
  tail call void @ExecutorEnd(ptr noundef %5) #17
  %6 = load ptr, ptr %2, align 8
  tail call void @FreeQueryDesc(ptr noundef %6) #17
  tail call void @PopActiveSnapshot() #17
  br label %7

7:                                                ; preds = %4, %1
  %8 = getelementptr inbounds nuw i8, ptr %0, i64 64
  %9 = load i8, ptr %8, align 8, !range !6, !noundef !7
  %10 = trunc nuw i8 %9 to i1
  br i1 %10, label %11, label %12

11:                                               ; preds = %7
  tail call fastcc void @ClosePipeToProgram(ptr noundef nonnull %0)
  br label %EndCopy.exit

12:                                               ; preds = %7
  %13 = getelementptr inbounds nuw i8, ptr %0, i64 56
  %14 = load ptr, ptr %13, align 8
  %.not.i = icmp eq ptr %14, null
  br i1 %.not.i, label %EndCopy.exit, label %15

15:                                               ; preds = %12
  %16 = getelementptr inbounds nuw i8, ptr %0, i64 8
  %17 = load ptr, ptr %16, align 8
  %18 = tail call i32 @FreeFile(ptr noundef %17) #17
  %.not7.i = icmp eq i32 %18, 0
  br i1 %.not7.i, label %EndCopy.exit, label %19

19:                                               ; preds = %15
  %20 = tail call zeroext i1 @errstart_cold(i32 noundef 21, ptr noundef null) #18
  tail call void @llvm.assume(i1 %20)
  %21 = tail call i32 @errcode_for_file_access() #17
  %22 = load ptr, ptr %13, align 8
  %23 = tail call i32 (ptr, ...) @errmsg(ptr noundef nonnull @.str.27, ptr noundef %22) #17
  tail call void @errfinish(ptr noundef nonnull @.str.2, i32 noundef 326, ptr noundef nonnull @__func__.EndCopy) #17
  unreachable

EndCopy.exit:                                     ; preds = %11, %12, %15
  tail call void @pgstat_progress_end_command() #17
  %24 = getelementptr inbounds nuw i8, ptr %0, i64 272
  %25 = load ptr, ptr %24, align 8
  tail call void @MemoryContextDelete(ptr noundef %25) #17
  tail call void @pfree(ptr noundef nonnull %0) #17
  ret void
}